target datalayout = "e-m:e-p270:32:32-p271:32:32-p272:64:64-i64:64-i128:128-f80:128-n8:16:32:64-S128"
target triple = "x86_64-pc-linux-gnu"

%struct.MMSHContext = type { %struct.MMSContext, [1024 x i8], i32, i32 }
%struct.MMSContext = type { ptr, ptr, ptr, [512 x i8], [65536 x i8], ptr, i32, ptr, i32, i32, i32, i32, i32, i32 }

@.str.13 = private unnamed_addr constant [34 x i8] c"Header len changed from %d to %d\0A\00", align 1
@.str.14 = private unnamed_addr constant [62 x i8] c"Asf header packet len = %d exceed the asf header buf size %d\0A\00", align 1
@.str.15 = private unnamed_addr constant [48 x i8] c"Recv asf header data len %d != expected len %d\0A\00", align 1
@.str.16 = private unnamed_addr constant [53 x i8] c"Other packet len = %d exceed the in_buffer size %zu\0A\00", align 1
@.str.17 = private unnamed_addr constant [36 x i8] c"Read other chunk type data failed!\0A\00", align 1
@.str.18 = private unnamed_addr constant [21 x i8] c"Skip chunk type %d \0A\00", align 1

; Function Attrs: nounwind uwtable
define internal i32 @get_http_header_data(ptr noundef %0) #0 {
  %2 = alloca i32, align 4
  %3 = alloca ptr, align 8
  %4 = alloca ptr, align 8
  %5 = alloca i32, align 4
  %6 = alloca i32, align 4
  %7 = alloca i32, align 4
  %8 = alloca i32, align 4
  store ptr %0, ptr %3, align 8, !tbaa !19
  call void @llvm.lifetime.start.p0(i64 8, ptr %4) #5
  %9 = load ptr, ptr %3, align 8, !tbaa !19
  %10 = getelementptr inbounds nuw %struct.MMSHContext, ptr %9, i32 0, i32 0
  store ptr %10, ptr %4, align 8, !tbaa !21
  call void @llvm.lifetime.start.p0(i64 4, ptr %5) #5
  call void @llvm.lifetime.start.p0(i64 4, ptr %6) #5
  call void @llvm.lifetime.start.p0(i64 4, ptr %7) #5
  br label %11

11:                                               ; preds = %138, %133, %1
  store i32 0, ptr %6, align 4, !tbaa !11
  %12 = load ptr, ptr %3, align 8, !tbaa !19
  %13 = call i32 @get_chunk_header(ptr noundef %12, ptr noundef %6)
  store i32 %13, ptr %7, align 4, !tbaa !11
  store i32 %13, ptr %5, align 4, !tbaa !11
  %14 = load i32, ptr %5, align 4, !tbaa !11
  %15 = icmp slt i32 %14, 0
  br i1 %15, label %16, label %18

16:                                               ; preds = %11
  %17 = load i32, ptr %5, align 4, !tbaa !11
  store i32 %17, ptr %2, align 4
  store i32 1, ptr %8, align 4
  br label %139

18:                                               ; preds = %11
  %19 = load i32, ptr %7, align 4, !tbaa !11
  %20 = icmp eq i32 %19, 18468
  br i1 %20, label %21, label %104

21:                                               ; preds = %18
  %22 = load ptr, ptr %4, align 8, !tbaa !21
  %23 = getelementptr inbounds nuw %struct.MMSContext, ptr %22, i32 0, i32 9
  %24 = load i32, ptr %23, align 4, !tbaa !46
  %25 = icmp ne i32 %24, 0
  br i1 %25, label %63, label %26

26:                                               ; preds = %21
  %27 = load ptr, ptr %4, align 8, !tbaa !21
  %28 = getelementptr inbounds nuw %struct.MMSContext, ptr %27, i32 0, i32 7
  %29 = load ptr, ptr %28, align 8, !tbaa !47
  %30 = icmp ne ptr %29, null
  br i1 %30, label %31, label %48

31:                                               ; preds = %26
  %32 = load i32, ptr %6, align 4, !tbaa !11
  %33 = load ptr, ptr %4, align 8, !tbaa !21
  %34 = getelementptr inbounds nuw %struct.MMSContext, ptr %33, i32 0, i32 8
  %35 = load i32, ptr %34, align 8, !tbaa !26
  %36 = icmp ne i32 %32, %35
  br i1 %36, label %37, label %47

37:                                               ; preds = %31
  %38 = load i32, ptr %6, align 4, !tbaa !11
  %39 = load ptr, ptr %4, align 8, !tbaa !21
  %40 = getelementptr inbounds nuw %struct.MMSContext, ptr %39, i32 0, i32 8
  store i32 %38, ptr %40, align 8, !tbaa !26
  %41 = load ptr, ptr %4, align 8, !tbaa !21
  %42 = getelementptr inbounds nuw %struct.MMSContext, ptr %41, i32 0, i32 8
  %43 = load i32, ptr %42, align 8, !tbaa !26
  %44 = load i32, ptr %6, align 4, !tbaa !11
  call void (ptr, i32, ptr, ...) @av_log(ptr noundef null, i32 noundef 56, ptr noundef @.str.13, i32 noundef %43, i32 noundef %44)
  %45 = load ptr, ptr %4, align 8, !tbaa !21
  %46 = getelementptr inbounds nuw %struct.MMSContext, ptr %45, i32 0, i32 7
  call void @av_freep(ptr noundef %46)
  br label %47

47:                                               ; preds = %37, %31
  br label %48

48:                                               ; preds = %47, %26
  %49 = load i32, ptr %6, align 4, !tbaa !11
  %50 = sext i32 %49 to i64
  %51 = call noalias ptr @av_mallocz(i64 noundef %50)
  %52 = load ptr, ptr %4, align 8, !tbaa !21
  %53 = getelementptr inbounds nuw %struct.MMSContext, ptr %52, i32 0, i32 7
  store ptr %51, ptr %53, align 8, !tbaa !47
  %54 = load ptr, ptr %4, align 8, !tbaa !21
  %55 = getelementptr inbounds nuw %struct.MMSContext, ptr %54, i32 0, i32 7
  %56 = load ptr, ptr %55, align 8, !tbaa !47
  %57 = icmp ne ptr %56, null
  br i1 %57, label %59, label %58

58:                                               ; preds = %48
  store i32 -12, ptr %2, align 4
  store i32 1, ptr %8, align 4
  br label %139

59:                                               ; preds = %48
  %60 = load i32, ptr %6, align 4, !tbaa !11
  %61 = load ptr, ptr %4, align 8, !tbaa !21
  %62 = getelementptr inbounds nuw %struct.MMSContext, ptr %61, i32 0, i32 8
  store i32 %60, ptr %62, align 8, !tbaa !26
  br label %63

63:                                               ; preds = %59, %21
  %64 = load i32, ptr %6, align 4, !tbaa !11
  %65 = load ptr, ptr %4, align 8, !tbaa !21
  %66 = getelementptr inbounds nuw %struct.MMSContext, ptr %65, i32 0, i32 8
  %67 = load i32, ptr %66, align 8, !tbaa !26
  %68 = icmp sgt i32 %64, %67
  br i1 %68, label %69, label %74

69:                                               ; preds = %63
  %70 = load i32, ptr %6, align 4, !tbaa !11
  %71 = load ptr, ptr %4, align 8, !tbaa !21
  %72 = getelementptr inbounds nuw %struct.MMSContext, ptr %71, i32 0, i32 8
  %73 = load i32, ptr %72, align 8, !tbaa !26
  call void (ptr, i32, ptr, ...) @av_log(ptr noundef null, i32 noundef 16, ptr noundef @.str.14, i32 noundef %70, i32 noundef %73)
  store i32 -5, ptr %2, align 4
  store i32 1, ptr %8, align 4
  br label %139

74:                                               ; preds = %63
  %75 = load ptr, ptr %4, align 8, !tbaa !21
  %76 = getelementptr inbounds nuw %struct.MMSContext, ptr %75, i32 0, i32 0
  %77 = load ptr, ptr %76, align 8, !tbaa !39
  %78 = load ptr, ptr %4, align 8, !tbaa !21
  %79 = getelementptr inbounds nuw %struct.MMSContext, ptr %78, i32 0, i32 7
  %80 = load ptr, ptr %79, align 8, !tbaa !47
  %81 = load i32, ptr %6, align 4, !tbaa !11
  %82 = call i32 @ffurl_read_complete(ptr noundef %77, ptr noundef %80, i32 noundef %81)
  store i32 %82, ptr %5, align 4, !tbaa !11
  %83 = load i32, ptr %5, align 4, !tbaa !11
  %84 = load i32, ptr %6, align 4, !tbaa !11
  %85 = icmp ne i32 %83, %84
  br i1 %85, label %86, label %89

86:                                               ; preds = %74
  %87 = load i32, ptr %5, align 4, !tbaa !11
  %88 = load i32, ptr %6, align 4, !tbaa !11
  call void (ptr, i32, ptr, ...) @av_log(ptr noundef null, i32 noundef 16, ptr noundef @.str.15, i32 noundef %87, i32 noundef %88)
  store i32 -5, ptr %2, align 4
  store i32 1, ptr %8, align 4
  br label %139

89:                                               ; preds = %74
  %90 = load i32, ptr %6, align 4, !tbaa !11
  %91 = load ptr, ptr %4, align 8, !tbaa !21
  %92 = getelementptr inbounds nuw %struct.MMSContext, ptr %91, i32 0, i32 8
  store i32 %90, ptr %92, align 8, !tbaa !26
  %93 = load ptr, ptr %4, align 8, !tbaa !21
  %94 = getelementptr inbounds nuw %struct.MMSContext, ptr %93, i32 0, i32 9
  %95 = load i32, ptr %94, align 4, !tbaa !46
  %96 = icmp ne i32 %95, 0
  br i1 %96, label %103, label %97

97:                                               ; preds = %89
  %98 = load ptr, ptr %4, align 8, !tbaa !21
  %99 = call i32 @ff_mms_asf_header_parser(ptr noundef %98)
  store i32 %99, ptr %5, align 4, !tbaa !11
  %100 = load ptr, ptr %4, align 8, !tbaa !21
  %101 = getelementptr inbounds nuw %struct.MMSContext, ptr %100, i32 0, i32 9
  store i32 1, ptr %101, align 4, !tbaa !46
  %102 = load i32, ptr %5, align 4, !tbaa !11
  store i32 %102, ptr %2, align 4
  store i32 1, ptr %8, align 4
  br label %139

103:                                              ; preds = %89
  br label %137

104:                                              ; preds = %18
  %105 = load i32, ptr %7, align 4, !tbaa !11
  %106 = icmp eq i32 %105, 17444
  br i1 %106, label %107, label %111

107:                                              ; preds = %104
  %108 = load ptr, ptr %3, align 8, !tbaa !19
  %109 = load i32, ptr %6, align 4, !tbaa !11
  %110 = call i32 @read_data_packet(ptr noundef %108, i32 noundef %109)
  store i32 %110, ptr %2, align 4
  store i32 1, ptr %8, align 4
  br label %139

111:                                              ; preds = %104
  %112 = load i32, ptr %6, align 4, !tbaa !11
  %113 = icmp ne i32 %112, 0
  br i1 %113, label %114, label %135

114:                                              ; preds = %111
  %115 = load i32, ptr %6, align 4, !tbaa !11
  %116 = sext i32 %115 to i64
  %117 = icmp ugt i64 %116, 65536
  br i1 %117, label %118, label %120

118:                                              ; preds = %114
  %119 = load i32, ptr %6, align 4, !tbaa !11
  call void (ptr, i32, ptr, ...) @av_log(ptr noundef null, i32 noundef 16, ptr noundef @.str.16, i32 noundef %119, i64 noundef 65536)
  store i32 -5, ptr %2, align 4
  store i32 1, ptr %8, align 4
  br label %139

120:                                              ; preds = %114
  %121 = load ptr, ptr %4, align 8, !tbaa !21
  %122 = getelementptr inbounds nuw %struct.MMSContext, ptr %121, i32 0, i32 0
  %123 = load ptr, ptr %122, align 8, !tbaa !39
  %124 = load ptr, ptr %4, align 8, !tbaa !21
  %125 = getelementptr inbounds nuw %struct.MMSContext, ptr %124, i32 0, i32 4
  %126 = getelementptr inbounds [65536 x i8], ptr %125, i64 0, i64 0
  %127 = load i32, ptr %6, align 4, !tbaa !11
  %128 = call i32 @ffurl_read_complete(ptr noundef %123, ptr noundef %126, i32 noundef %127)
  store i32 %128, ptr %5, align 4, !tbaa !11
  %129 = load i32, ptr %5, align 4, !tbaa !11
  %130 = load i32, ptr %6, align 4, !tbaa !11
  %131 = icmp ne i32 %129, %130
  br i1 %131, label %132, label %133

132:                                              ; preds = %120
  call void (ptr, i32, ptr, ...) @av_log(ptr noundef null, i32 noundef 16, ptr noundef @.str.17)
  store i32 -5, ptr %2, align 4
  store i32 1, ptr %8, align 4
  br label %139

133:                                              ; preds = %120
  %134 = load i32, ptr %7, align 4, !tbaa !11
  call void (ptr, i32, ptr, ...) @av_log(ptr noundef null, i32 noundef 56, ptr noundef @.str.18, i32 noundef %134)
  br label %11

135:                                              ; preds = %111
  br label %136

136:                                              ; preds = %135
  br label %137

137:                                              ; preds = %136, %103
  br label %138

138:                                              ; preds = %137
  br label %11

139:                                              ; preds = %132, %118, %107, %97, %86, %69, %58, %16
  call void @llvm.lifetime.end.p0(i64 4, ptr %7) #5
  call void @llvm.lifetime.end.p0(i64 4, ptr %6) #5
  call void @llvm.lifetime.end.p0(i64 4, ptr %5) #5
  call void @llvm.lifetime.end.p0(i64 8, ptr %4) #5
  %140 = load i32, ptr %2, align 4
  ret i32 %140
}