; Function Attrs: nounwind uwtable
define internal fastcc i32 @get_http_header_data(ptr noundef %0) unnamed_addr #0 {
  %2 = alloca i32, align 4
  call void @llvm.lifetime.start.p0(i64 4, ptr nonnull %2) #7
  store i32 0, ptr %2, align 4, !tbaa !21
  %3 = call fastcc i32 @get_chunk_header(ptr noundef %0, ptr noundef %2)
  %4 = icmp slt i32 %3, 0
  br i1 %4, label %.loopexit, label %.lr.ph

.lr.ph:                                           ; preds = %1
  %5 = getelementptr inbounds nuw i8, ptr %0, i64 66100
  %6 = getelementptr inbounds nuw i8, ptr %0, i64 66088
  %7 = getelementptr inbounds nuw i8, ptr %0, i64 66096
  %8 = getelementptr inbounds nuw i8, ptr %0, i64 536
  br label %9

9:                                                ; preds = %.lr.ph, %.backedge
  %10 = phi i32 [ %3, %.lr.ph ], [ %46, %.backedge ]
  switch i32 %10, label %36 [
    i32 18468, label %11
    i32 17444, label %33
  ]

11:                                               ; preds = %9
  %12 = load i32, ptr %5, align 4, !tbaa !24
  %.not41 = icmp eq i32 %12, 0
  %.pre70 = load i32, ptr %2, align 4, !tbaa !21
  br i1 %.not41, label %13, label %21

13:                                               ; preds = %11
  %14 = load ptr, ptr %6, align 8, !tbaa !40
  %.not42 = icmp eq ptr %14, null
  br i1 %.not42, label %18, label %15

15:                                               ; preds = %13
  %16 = load i32, ptr %7, align 8, !tbaa !19
  %.not43 = icmp eq i32 %.pre70, %16
  br i1 %.not43, label %18, label %17

17:                                               ; preds = %15
  store i32 %.pre70, ptr %7, align 8, !tbaa !19
  tail call void (ptr, i32, ptr, ...) @av_log(ptr noundef null, i32 noundef 56, ptr noundef nonnull @.str.13, i32 noundef %.pre70, i32 noundef %.pre70) #7
  tail call void @av_freep(ptr noundef nonnull %6) #7
  br label %18

18:                                               ; preds = %15, %17, %13
  %19 = sext i32 %.pre70 to i64
  %20 = tail call noalias ptr @av_mallocz(i64 noundef %19) #7
  store ptr %20, ptr %6, align 8, !tbaa !40
  %.not44 = icmp eq ptr %20, null
  br i1 %.not44, label %.loopexit, label %.thread

.thread:                                          ; preds = %18
  store i32 %.pre70, ptr %7, align 8, !tbaa !19
  br label %24

21:                                               ; preds = %11
  %.pre = load i32, ptr %7, align 8, !tbaa !19
  %22 = icmp sgt i32 %.pre70, %.pre
  br i1 %22, label %23, label %24

23:                                               ; preds = %21
  tail call void (ptr, i32, ptr, ...) @av_log(ptr noundef null, i32 noundef 16, ptr noundef nonnull @.str.14, i32 noundef %.pre70, i32 noundef %.pre) #7
  br label %.loopexit

24:                                               ; preds = %.thread, %21
  %25 = load ptr, ptr %0, align 8, !tbaa !33
  %26 = load ptr, ptr %6, align 8, !tbaa !40
  %27 = tail call i32 @ffurl_read_complete(ptr noundef %25, ptr noundef %26, i32 noundef %.pre70) #7
  %.not45 = icmp eq i32 %27, %.pre70
  br i1 %.not45, label %29, label %28

28:                                               ; preds = %24
  tail call void (ptr, i32, ptr, ...) @av_log(ptr noundef null, i32 noundef 16, ptr noundef nonnull @.str.15, i32 noundef %27, i32 noundef %.pre70) #7
  br label %.loopexit

29:                                               ; preds = %24
  store i32 %.pre70, ptr %7, align 8, !tbaa !19
  %30 = load i32, ptr %5, align 4, !tbaa !24
  %.not46 = icmp eq i32 %30, 0
  br i1 %.not46, label %31, label %.backedge

31:                                               ; preds = %29
  %32 = tail call i32 @ff_mms_asf_header_parser(ptr noundef nonnull %0) #7
  store i32 1, ptr %5, align 4, !tbaa !24
  br label %.loopexit

33:                                               ; preds = %9
  %34 = load i32, ptr %2, align 4, !tbaa !21
  %35 = tail call fastcc i32 @read_data_packet(ptr noundef %0, i32 noundef %34)
  br label %.loopexit

36:                                               ; preds = %9
  %37 = load i32, ptr %2, align 4, !tbaa !21
  %.not = icmp eq i32 %37, 0
  br i1 %.not, label %.backedge, label %38

38:                                               ; preds = %36
  %39 = icmp ugt i32 %37, 65536
  br i1 %39, label %40, label %41

40:                                               ; preds = %38
  tail call void (ptr, i32, ptr, ...) @av_log(ptr noundef null, i32 noundef 16, ptr noundef nonnull @.str.16, i32 noundef %37, i64 noundef 65536) #7
  br label %.loopexit

41:                                               ; preds = %38
  %42 = load ptr, ptr %0, align 8, !tbaa !33
  %43 = tail call i32 @ffurl_read_complete(ptr noundef %42, ptr noundef nonnull %8, i32 noundef %37) #7
  %.not40 = icmp eq i32 %43, %37
  br i1 %.not40, label %45, label %44

44:                                               ; preds = %41
  tail call void (ptr, i32, ptr, ...) @av_log(ptr noundef null, i32 noundef 16, ptr noundef nonnull @.str.17) #7
  br label %.loopexit

45:                                               ; preds = %41
  tail call void (ptr, i32, ptr, ...) @av_log(ptr noundef null, i32 noundef 56, ptr noundef nonnull @.str.18, i32 noundef %10) #7
  br label %.backedge

.backedge:                                        ; preds = %36, %29, %45
  store i32 0, ptr %2, align 4, !tbaa !21
  %46 = call fastcc i32 @get_chunk_header(ptr noundef %0, ptr noundef %2)
  %47 = icmp slt i32 %46, 0
  br i1 %47, label %.loopexit, label %9

.loopexit:                                        ; preds = %.backedge, %18, %1, %44, %40, %33, %31, %28, %23
  %.0 = phi i32 [ -5, %23 ], [ -5, %28 ], [ %32, %31 ], [ %35, %33 ], [ -5, %40 ], [ -5, %44 ], [ %3, %1 ], [ %46, %.backedge ], [ -12, %18 ]
  call void @llvm.lifetime.end.p0(i64 4, ptr nonnull %2) #7
  ret i32 %.0
}